target datalayout = "e-m:e-p270:32:32-p271:32:32-p272:64:64-i64:64-i128:128-f80:128-n8:16:32:64-S128"
target triple = "x86_64-pc-linux-gnu"

%struct._capture_file = type { ptr, i32, ptr, ptr, i8, i8, i8, i64, i16, i32, i32, i32, ptr, i32, i64, i32, i32, i32, i32, i8, i32, %struct.nstime_t, i32, ptr, ptr, ptr, i8, i8, i32, ptr, i8, i8, i8, i8, i8, i32, i32, i8, ptr, i32, i32, i8, %struct.packet_provider_data, i32, i32, %struct.epan_column_info, ptr, ptr, ptr, %struct.wtap_rec, %struct.Buffer, ptr, i64, i32 }
%struct.nstime_t = type { i64, i32 }
%struct.packet_provider_data = type { ptr, ptr, ptr, ptr, ptr, ptr }
%struct.epan_column_info = type { ptr, i32, ptr, ptr, ptr, %struct.col_expr_t, i8, ptr }
%struct.col_expr_t = type { ptr, ptr }
%struct.wtap_rec = type { i32, i32, i32, %struct.nstime_t, i32, %struct.nstime_t, i8, %union.anon, ptr, i8, %struct.Buffer, %struct.Buffer }
%union.anon = type { %struct.wtap_packet_header }
%struct.wtap_packet_header = type { i32, i32, i32, i32, %union.wtap_pseudo_header }
%union.wtap_pseudo_header = type { %struct.erf_mc_phdr }
%struct.erf_mc_phdr = type { %struct.erf_phdr, [16 x %struct.erf_ehdr], %union.anon.1 }
%struct.erf_phdr = type { i64, i8, i8, i16, i16, i16 }
%struct.erf_ehdr = type { i64 }
%union.anon.1 = type { i32 }
%struct.Buffer = type { ptr, i64, i64, i64 }
%struct._frame_data = type <{ i32, i32, i32, i32, i32, [4 x i8], i64, ptr, ptr, ptr, i8, i16, [5 x i8], %struct.nstime_t, %struct.nstime_t, i32, i32 }>

@cfile = hidden global %struct._capture_file zeroinitializer, align 8

; Function Attrs: null_pointer_is_valid sspstrong uwtable
define hidden ptr @sharkd_get_packet_block(ptr noundef %0) #0 {
  %2 = alloca ptr, align 8
  %3 = alloca ptr, align 8
  %4 = alloca %struct.wtap_rec, align 8
  %5 = alloca ptr, align 8
  %6 = alloca i32, align 4
  %7 = alloca ptr, align 8
  store ptr %0, ptr %3, align 8
  %8 = load ptr, ptr %3, align 8
  %9 = getelementptr inbounds nuw %struct._frame_data, ptr %8, i32 0, i32 11
  %10 = load i16, ptr %9, align 1
  %11 = lshr i16 %10, 8
  %12 = and i16 %11, 1
  %13 = zext i16 %12 to i32
  %14 = icmp ne i32 %13, 0
  br i1 %14, label %15, label %19

15:                                               ; preds = %1
  %16 = load ptr, ptr %3, align 8
  %17 = call ptr @cap_file_provider_get_modified_block(ptr noundef getelementptr inbounds nuw (%struct._capture_file, ptr @cfile, i32 0, i32 42), ptr noundef %16)
  %18 = call ptr @wtap_block_ref(ptr noundef %17)
  store ptr %18, ptr %2, align 8
  br label %31

19:                                               ; preds = %1
  call void @llvm.lifetime.start.p0(i64 312, ptr %4) #5
  call void @llvm.lifetime.start.p0(i64 8, ptr %5) #5
  call void @llvm.lifetime.start.p0(i64 4, ptr %6) #5
  call void @llvm.lifetime.start.p0(i64 8, ptr %7) #5
  call void @wtap_rec_init(ptr noundef %4, i64 noundef 1514)
  %20 = load ptr, ptr getelementptr inbounds nuw (%struct._capture_file, ptr @cfile, i32 0, i32 42), align 8
  %21 = load ptr, ptr %3, align 8
  %22 = getelementptr inbounds nuw %struct._frame_data, ptr %21, i32 0, i32 6
  %23 = load i64, ptr %22, align 8
  %24 = call zeroext i1 @wtap_seek_read(ptr noundef %20, i64 noundef %23, ptr noundef %4, ptr noundef %6, ptr noundef %7)
  br i1 %24, label %26, label %25

25:                                               ; preds = %19
  br label %26

26:                                               ; preds = %25, %19
  %27 = getelementptr inbounds nuw %struct.wtap_rec, ptr %4, i32 0, i32 8
  %28 = load ptr, ptr %27, align 8
  %29 = call ptr @wtap_block_ref(ptr noundef %28)
  store ptr %29, ptr %5, align 8
  call void @wtap_rec_cleanup(ptr noundef %4)
  %30 = load ptr, ptr %5, align 8
  store ptr %30, ptr %2, align 8
  call void @llvm.lifetime.end.p0(i64 8, ptr %7) #5
  call void @llvm.lifetime.end.p0(i64 4, ptr %6) #5
  call void @llvm.lifetime.end.p0(i64 8, ptr %5) #5
  call void @llvm.lifetime.end.p0(i64 312, ptr %4) #5
  br label %31

31:                                               ; preds = %26, %15
  %32 = load ptr, ptr %2, align 8
  ret ptr %32
}