; Function Attrs: null_pointer_is_valid sspstrong uwtable
define hidden ptr @sharkd_get_packet_block(ptr noundef %0) local_unnamed_addr #0 {
  %2 = alloca %struct.wtap_rec, align 8
  %3 = alloca i32, align 4
  %4 = alloca ptr, align 8
  %5 = getelementptr inbounds nuw i8, ptr %0, i64 57
  %6 = load i16, ptr %5, align 1
  %7 = and i16 %6, 256
  %.not = icmp eq i16 %7, 0
  br i1 %.not, label %11, label %8

8:                                                ; preds = %1
  %9 = tail call ptr @cap_file_provider_get_modified_block(ptr noundef nonnull getelementptr inbounds nuw (i8, ptr @cfile, i64 224), ptr noundef %0)
  %10 = tail call ptr @wtap_block_ref(ptr noundef %9)
  br label %19

11:                                               ; preds = %1
  call void @llvm.lifetime.start.p0(i64 312, ptr nonnull %2) #7
  call void @llvm.lifetime.start.p0(i64 4, ptr nonnull %3) #7
  call void @llvm.lifetime.start.p0(i64 8, ptr nonnull %4) #7
  call void @wtap_rec_init(ptr noundef nonnull %2, i64 noundef 1514)
  %12 = load ptr, ptr getelementptr inbounds nuw (i8, ptr @cfile, i64 224), align 8
  %13 = getelementptr inbounds nuw i8, ptr %0, i64 24
  %14 = load i64, ptr %13, align 8
  %15 = call zeroext i1 @wtap_seek_read(ptr noundef %12, i64 noundef %14, ptr noundef nonnull %2, ptr noundef nonnull %3, ptr noundef nonnull %4)
  %16 = getelementptr inbounds nuw i8, ptr %2, i64 232
  %17 = load ptr, ptr %16, align 8
  %18 = call ptr @wtap_block_ref(ptr noundef %17)
  call void @wtap_rec_cleanup(ptr noundef nonnull %2)
  call void @llvm.lifetime.end.p0(i64 8, ptr nonnull %4) #7
  call void @llvm.lifetime.end.p0(i64 4, ptr nonnull %3) #7
  call void @llvm.lifetime.end.p0(i64 312, ptr nonnull %2) #7
  br label %19

19:                                               ; preds = %11, %8
  %.0 = phi ptr [ %10, %8 ], [ %18, %11 ]
  ret ptr %.0
}